; ModuleID = '2/319.c'
source_filename = "2/319.c"
target datalayout = "e-m:e-p270:32:32-p271:32:32-p272:64:64-i64:64-f80:128-n8:16:32:64-S128"
target triple = "x86_64-pc-linux-gnu"

@.str = private unnamed_addr constant [3 x i8] c"%d\00", align 1
@.str.1 = private unnamed_addr constant [6 x i8] c"%d %s\00", align 1
@.str.2 = private unnamed_addr constant [4 x i8] c"%c\0A\00", align 1
@.str.3 = private unnamed_addr constant [4 x i8] c"%d\0A\00", align 1

; Function Attrs: noinline nounwind uwtable
define dso_local void @main() #0 {
  %1 = alloca i32, align 4
  %2 = alloca i32, align 4
  %3 = alloca i32, align 4
  %4 = alloca i32, align 4
  %5 = alloca i32, align 4
  %6 = alloca i32, align 4
  %7 = alloca i32, align 4
  %8 = alloca [1000 x i32], align 16
  %9 = alloca [26 x i32], align 16
  %10 = alloca [1000 x [30 x i8]], align 16
  %11 = alloca i8, align 1
  store i32 0, i32* %7, align 4
  %12 = bitcast [26 x i32]* %9 to i8*
  call void @llvm.memset.p0i8.i64(i8* align 16 %12, i8 0, i64 104, i1 false)
  %13 = call i32 (i8*, ...) @__isoc99_scanf(i8* getelementptr inbounds ([3 x i8], [3 x i8]* @.str, i64 0, i64 0), i32* %1)
  store i32 0, i32* %3, align 4
  br label %14

14:                                               ; preds = %27, %0
  %15 = load i32, i32* %3, align 4
  %16 = load i32, i32* %1, align 4
  %17 = icmp slt i32 %15, %16
  br i1 %17, label %18, label %30

18:                                               ; preds = %14
  %19 = load i32, i32* %3, align 4
  %20 = sext i32 %19 to i64
  %21 = getelementptr inbounds [1000 x i32], [1000 x i32]* %8, i64 0, i64 %20
  %22 = load i32, i32* %3, align 4
  %23 = sext i32 %22 to i64
  %24 = getelementptr inbounds [1000 x [30 x i8]], [1000 x [30 x i8]]* %10, i64 0, i64 %23
  %25 = getelementptr inbounds [30 x i8], [30 x i8]* %24, i64 0, i64 0
  %26 = call i32 (i8*, ...) @__isoc99_scanf(i8* getelementptr inbounds ([6 x i8], [6 x i8]* @.str.1, i64 0, i64 0), i32* %21, i8* %25)
  br label %27

27:                                               ; preds = %18
  %28 = load i32, i32* %3, align 4
  %29 = add nsw i32 %28, 1
  store i32 %29, i32* %3, align 4
  br label %14

30:                                               ; preds = %14
  store i32 0, i32* %3, align 4
  br label %31

31:                                               ; preds = %65, %30
  %32 = load i32, i32* %3, align 4
  %33 = load i32, i32* %1, align 4
  %34 = icmp slt i32 %32, %33
  br i1 %34, label %35, label %68

35:                                               ; preds = %31
  %36 = load i32, i32* %3, align 4
  %37 = sext i32 %36 to i64
  %38 = getelementptr inbounds [1000 x [30 x i8]], [1000 x [30 x i8]]* %10, i64 0, i64 %37
  %39 = getelementptr inbounds [30 x i8], [30 x i8]* %38, i64 0, i64 0
  %40 = call i64 @strlen(i8* %39) #4
  %41 = trunc i64 %40 to i32
  store i32 %41, i32* %2, align 4
  store i32 0, i32* %4, align 4
  br label %42

42:                                               ; preds = %61, %35
  %43 = load i32, i32* %4, align 4
  %44 = load i32, i32* %2, align 4
  %45 = icmp slt i32 %43, %44
  br i1 %45, label %46, label %64

46:                                               ; preds = %42
  %47 = load i32, i32* %3, align 4
  %48 = sext i32 %47 to i64
  %49 = getelementptr inbounds [1000 x [30 x i8]], [1000 x [30 x i8]]* %10, i64 0, i64 %48
  %50 = load i32, i32* %4, align 4
  %51 = sext i32 %50 to i64
  %52 = getelementptr inbounds [30 x i8], [30 x i8]* %49, i64 0, i64 %51
  %53 = load i8, i8* %52, align 1
  %54 = sext i8 %53 to i32
  %55 = sub nsw i32 %54, 65
  store i32 %55, i32* %6, align 4
  %56 = load i32, i32* %6, align 4
  %57 = sext i32 %56 to i64
  %58 = getelementptr inbounds [26 x i32], [26 x i32]* %9, i64 0, i64 %57
  %59 = load i32, i32* %58, align 4
  %60 = add nsw i32 %59, 1
  store i32 %60, i32* %58, align 4
  br label %61

61:                                               ; preds = %46
  %62 = load i32, i32* %4, align 4
  %63 = add nsw i32 %62, 1
  store i32 %63, i32* %4, align 4
  br label %42

64:                                               ; preds = %42
  br label %65

65:                                               ; preds = %64
  %66 = load i32, i32* %3, align 4
  %67 = add nsw i32 %66, 1
  store i32 %67, i32* %3, align 4
  br label %31

68:                                               ; preds = %31
  store i32 0, i32* %3, align 4
  br label %69

69:                                               ; preds = %85, %68
  %70 = load i32, i32* %3, align 4
  %71 = icmp slt i32 %70, 26
  br i1 %71, label %72, label %88

72:                                               ; preds = %69
  %73 = load i32, i32* %3, align 4
  %74 = sext i32 %73 to i64
  %75 = getelementptr inbounds [26 x i32], [26 x i32]* %9, i64 0, i64 %74
  %76 = load i32, i32* %75, align 4
  %77 = load i32, i32* %7, align 4
  %78 = icmp sge i32 %76, %77
  br i1 %78, label %79, label %84

79:                                               ; preds = %72
  %80 = load i32, i32* %3, align 4
  %81 = sext i32 %80 to i64
  %82 = getelementptr inbounds [26 x i32], [26 x i32]* %9, i64 0, i64 %81
  %83 = load i32, i32* %82, align 4
  store i32 %83, i32* %7, align 4
  br label %84

84:                                               ; preds = %79, %72
  br label %85

85:                                               ; preds = %84
  %86 = load i32, i32* %3, align 4
  %87 = add nsw i32 %86, 1
  store i32 %87, i32* %3, align 4
  br label %69

88:                                               ; preds = %69
  store i32 0, i32* %3, align 4
  br label %89

89:                                               ; preds = %110, %88
  %90 = load i32, i32* %3, align 4
  %91 = icmp slt i32 %90, 26
  br i1 %91, label %92, label %113

92:                                               ; preds = %89
  %93 = load i32, i32* %3, align 4
  %94 = sext i32 %93 to i64
  %95 = getelementptr inbounds [26 x i32], [26 x i32]* %9, i64 0, i64 %94
  %96 = load i32, i32* %95, align 4
  %97 = load i32, i32* %7, align 4
  %98 = icmp eq i32 %96, %97
  br i1 %98, label %99, label %109

99:                                               ; preds = %92
  %100 = load i32, i32* %3, align 4
  store i32 %100, i32* %5, align 4
  %101 = load i32, i32* %3, align 4
  %102 = add nsw i32 %101, 65
  %103 = trunc i32 %102 to i8
  store i8 %103, i8* %11, align 1
  %104 = load i8, i8* %11, align 1
  %105 = sext i8 %104 to i32
  %106 = call i32 (i8*, ...) @printf(i8* getelementptr inbounds ([4 x i8], [4 x i8]* @.str.2, i64 0, i64 0), i32 %105)
  %107 = load i32, i32* %7, align 4
  %108 = call i32 (i8*, ...) @printf(i8* getelementptr inbounds ([4 x i8], [4 x i8]* @.str.3, i64 0, i64 0), i32 %107)
  br label %109

109:                                              ; preds = %99, %92
  br label %110

110:                                              ; preds = %109
  %111 = load i32, i32* %3, align 4
  %112 = add nsw i32 %111, 1
  store i32 %112, i32* %3, align 4
  br label %89

113:                                              ; preds = %89
  store i32 0, i32* %3, align 4
  br label %114

114:                                              ; preds = %152, %113
  %115 = load i32, i32* %3, align 4
  %116 = load i32, i32* %1, align 4
  %117 = icmp slt i32 %115, %116
  br i1 %117, label %118, label %155

118:                                              ; preds = %114
  %119 = load i32, i32* %3, align 4
  %120 = sext i32 %119 to i64
  %121 = getelementptr inbounds [1000 x [30 x i8]], [1000 x [30 x i8]]* %10, i64 0, i64 %120
  %122 = getelementptr inbounds [30 x i8], [30 x i8]* %121, i64 0, i64 0
  %123 = call i64 @strlen(i8* %122) #4
  %124 = trunc i64 %123 to i32
  store i32 %124, i32* %2, align 4
  store i32 0, i32* %4, align 4
  br label %125

125:                                              ; preds = %148, %118
  %126 = load i32, i32* %4, align 4
  %127 = load i32, i32* %2, align 4
  %128 = icmp slt i32 %126, %127
  br i1 %128, label %129, label %151

129:                                              ; preds = %125
  %130 = load i32, i32* %3, align 4
  %131 = sext i32 %130 to i64
  %132 = getelementptr inbounds [1000 x [30 x i8]], [1000 x [30 x i8]]* %10, i64 0, i64 %131
  %133 = load i32, i32* %4, align 4
  %134 = sext i32 %133 to i64
  %135 = getelementptr inbounds [30 x i8], [30 x i8]* %132, i64 0, i64 %134
  %136 = load i8, i8* %135, align 1
  %137 = sext i8 %136 to i32
  %138 = load i32, i32* %5, align 4
  %139 = add nsw i32 65, %138
  %140 = icmp eq i32 %137, %139
  br i1 %140, label %141, label %147

141:                                              ; preds = %129
  %142 = load i32, i32* %3, align 4
  %143 = sext i32 %142 to i64
  %144 = getelementptr inbounds [1000 x i32], [1000 x i32]* %8, i64 0, i64 %143
  %145 = load i32, i32* %144, align 4
  %146 = call i32 (i8*, ...) @printf(i8* getelementptr inbounds ([4 x i8], [4 x i8]* @.str.3, i64 0, i64 0), i32 %145)
  br label %147

147:                                              ; preds = %141, %129
  br label %148

148:                                              ; preds = %147
  %149 = load i32, i32* %4, align 4
  %150 = add nsw i32 %149, 1
  store i32 %150, i32* %4, align 4
  br label %125

151:                                              ; preds = %125
  br label %152

152:                                              ; preds = %151
  %153 = load i32, i32* %3, align 4
  %154 = add nsw i32 %153, 1
  store i32 %154, i32* %3, align 4
  br label %114

155:                                              ; preds = %114
  ret void
}

; Function Attrs: argmemonly nounwind willreturn
declare void @llvm.memset.p0i8.i64(i8* nocapture writeonly, i8, i64, i1 immarg) #1

declare dso_local i32 @__isoc99_scanf(i8*, ...) #2

; Function Attrs: nounwind readonly
declare dso_local i64 @strlen(i8*) #3

declare dso_local i32 @printf(i8*, ...) #2


!llvm.module.flags = !{!0}
!llvm.ident = !{!1}

!0 = !{i32 1, !"wchar_size", i32 4}
!1 = !{!"clang version 10.0.0-4ubuntu1 "}
